; Function Attrs: mustprogress nounwind uwtable
define noundef zeroext i1 @_ZN7glslang11HlslGrammar18acceptDefaultLabelERP11TIntermNode(ptr noundef nonnull align 8 dereferenceable(360) %0, ptr nocapture noundef nonnull writeonly align 8 dereferenceable(8) %1) local_unnamed_addr #0 align 2 {
  %3 = alloca %"struct.glslang::TSourceLoc", align 8
  %4 = getelementptr inbounds i8, ptr %0, i64 8
  call void @llvm.memcpy.p0.p0.i64(ptr noundef nonnull align 8 dereferenceable(24) %3, ptr noundef nonnull align 8 dereferenceable(24) %4, i64 24, i1 false)
  %5 = tail call noundef zeroext i1 @_ZN7glslang15HlslTokenStream16acceptTokenClassENS_15EHlslTokenClassE(ptr noundef nonnull align 8 dereferenceable(324) %0, i32 noundef 332) #16
  br i1 %5, label %6, label %18

6:                                                ; preds = %2
  %7 = tail call noundef zeroext i1 @_ZN7glslang15HlslTokenStream16acceptTokenClassENS_15EHlslTokenClassE(ptr noundef nonnull align 8 dereferenceable(324) %0, i32 noundef 363) #16
  %8 = getelementptr inbounds i8, ptr %0, i64 328
  %9 = load ptr, ptr %8, align 8
  br i1 %7, label %14, label %10

10:                                               ; preds = %6
  %11 = load ptr, ptr %9, align 8
  %12 = getelementptr inbounds i8, ptr %11, i64 344
  %13 = load ptr, ptr %12, align 8
  tail call void (ptr, ptr, ptr, ptr, ptr, ...) %13(ptr noundef nonnull align 8 dereferenceable(1280) %9, ptr noundef nonnull align 8 dereferenceable(24) %4, ptr noundef nonnull @.str, ptr noundef nonnull @.str.81, ptr noundef nonnull @.str.1) #16
  br label %18

14:                                               ; preds = %6
  %15 = getelementptr inbounds i8, ptr %9, i64 56
  %16 = load ptr, ptr %15, align 8
  %17 = call noundef ptr @_ZN7glslang13TIntermediate9addBranchENS_9TOperatorERKNS_10TSourceLocE(ptr noundef nonnull align 8 dereferenceable(2024) %16, i32 noundef 473, ptr noundef nonnull align 8 dereferenceable(24) %3) #16
  store ptr %17, ptr %1, align 8
  br label %18

18:                                               ; preds = %2, %14, %10
  %.0 = phi i1 [ true, %14 ], [ false, %10 ], [ false, %2 ]
  ret i1 %.0
}